target datalayout = "e-m:e-p270:32:32-p271:32:32-p272:64:64-i64:64-i128:128-f80:128-n8:16:32:64-S128"
target triple = "x86_64-pc-linux-gnu"

%struct.BulkInsertStateData = type { ptr, i32, i32, i32, i32 }

; Function Attrs: nounwind uwtable
define dso_local ptr @GetBulkInsertState() #0 {
  %1 = alloca ptr, align 8
  call void @llvm.lifetime.start.p0(i64 8, ptr %1) #10
  %2 = call ptr @palloc(i64 noundef 24)
  store ptr %2, ptr %1, align 8
  %3 = call ptr @GetAccessStrategy(i32 noundef 2)
  %4 = load ptr, ptr %1, align 8
  %5 = getelementptr inbounds nuw %struct.BulkInsertStateData, ptr %4, i32 0, i32 0
  store ptr %3, ptr %5, align 8
  %6 = load ptr, ptr %1, align 8
  %7 = getelementptr inbounds nuw %struct.BulkInsertStateData, ptr %6, i32 0, i32 1
  store i32 0, ptr %7, align 8
  %8 = load ptr, ptr %1, align 8
  %9 = getelementptr inbounds nuw %struct.BulkInsertStateData, ptr %8, i32 0, i32 2
  store i32 -1, ptr %9, align 4
  %10 = load ptr, ptr %1, align 8
  %11 = getelementptr inbounds nuw %struct.BulkInsertStateData, ptr %10, i32 0, i32 3
  store i32 -1, ptr %11, align 8
  %12 = load ptr, ptr %1, align 8
  %13 = getelementptr inbounds nuw %struct.BulkInsertStateData, ptr %12, i32 0, i32 4
  store i32 0, ptr %13, align 4
  %14 = load ptr, ptr %1, align 8
  call void @llvm.lifetime.end.p0(i64 8, ptr %1) #10
  ret ptr %14
}