; Function Attrs: nounwind uwtable
define dso_local ptr @GetBulkInsertState() local_unnamed_addr #2 {
  %1 = tail call ptr @palloc(i64 noundef 24) #13
  %2 = tail call ptr @GetAccessStrategy(i32 noundef 2) #13
  store ptr %2, ptr %1, align 8
  %3 = getelementptr inbounds nuw i8, ptr %1, i64 8
  store i32 0, ptr %3, align 8
  %4 = getelementptr inbounds nuw i8, ptr %1, i64 12
  store i32 -1, ptr %4, align 4
  %5 = getelementptr inbounds nuw i8, ptr %1, i64 16
  store i32 -1, ptr %5, align 8
  %6 = getelementptr inbounds nuw i8, ptr %1, i64 20
  store i32 0, ptr %6, align 4
  ret ptr %1
}